target datalayout = "e-m:e-p270:32:32-p271:32:32-p272:64:64-i64:64-i128:128-f80:128-n8:16:32:64-S128"
target triple = "x86_64-pc-linux-gnu"

@.str = private unnamed_addr constant [10 x i8] c"algebraic\00", align 1
@.str.1 = private unnamed_addr constant [14 x i8] c"zero_accuracy\00", align 1
@.str.3 = private unnamed_addr constant [2 x i8] c"0\00", align 1
@.str.4 = private unnamed_addr constant [8 x i8] c"min_mag\00", align 1
@.str.6 = private unnamed_addr constant [3 x i8] c"16\00", align 1
@.str.7 = private unnamed_addr constant [7 x i8] c"factor\00", align 1
@.str.8 = private unnamed_addr constant [84 x i8] c"use polynomial factorization to simplify polynomials representing algebraic numbers\00", align 1
@.str.9 = private unnamed_addr constant [5 x i8] c"true\00", align 1
@.str.10 = private unnamed_addr constant [17 x i8] c"factor_max_prime\00", align 1
@.str.12 = private unnamed_addr constant [3 x i8] c"31\00", align 1
@.str.13 = private unnamed_addr constant [18 x i8] c"factor_num_primes\00", align 1
@.str.15 = private unnamed_addr constant [2 x i8] c"1\00", align 1
@.str.16 = private unnamed_addr constant [19 x i8] c"factor_search_size\00", align 1
@.str.18 = private unnamed_addr constant [5 x i8] c"5000\00", align 1

; Function Attrs: mustprogress uwtable
define linkonce_odr hidden void @_ZN16algebraic_params20collect_param_descrsER12param_descrs(ptr noundef nonnull align 8 dereferenceable(8) %0) #4 comdat align 2 {
  %2 = alloca ptr, align 8
  store ptr %0, ptr %2, align 8, !tbaa !3
  %3 = load ptr, ptr %2, align 8, !tbaa !3
  call void @_ZN12param_descrs6insertEPKc12cmd_arg_kindS1_S1_S1_(ptr noundef nonnull align 8 dereferenceable(8) %3, ptr noundef @.str.1, i32 noundef 0, ptr noundef @.str.2, ptr noundef @.str.3, ptr noundef @.str)
  %4 = load ptr, ptr %2, align 8, !tbaa !3
  call void @_ZN12param_descrs6insertEPKc12cmd_arg_kindS1_S1_S1_(ptr noundef nonnull align 8 dereferenceable(8) %4, ptr noundef @.str.4, i32 noundef 0, ptr noundef @.str.5, ptr noundef @.str.6, ptr noundef @.str)
  %5 = load ptr, ptr %2, align 8, !tbaa !3
  call void @_ZN12param_descrs6insertEPKc12cmd_arg_kindS1_S1_S1_(ptr noundef nonnull align 8 dereferenceable(8) %5, ptr noundef @.str.7, i32 noundef 1, ptr noundef @.str.8, ptr noundef @.str.9, ptr noundef @.str)
  %6 = load ptr, ptr %2, align 8, !tbaa !3
  call void @_ZN12param_descrs6insertEPKc12cmd_arg_kindS1_S1_S1_(ptr noundef nonnull align 8 dereferenceable(8) %6, ptr noundef @.str.10, i32 noundef 0, ptr noundef @.str.11, ptr noundef @.str.12, ptr noundef @.str)
  %7 = load ptr, ptr %2, align 8, !tbaa !3
  call void @_ZN12param_descrs6insertEPKc12cmd_arg_kindS1_S1_S1_(ptr noundef nonnull align 8 dereferenceable(8) %7, ptr noundef @.str.13, i32 noundef 0, ptr noundef @.str.14, ptr noundef @.str.15, ptr noundef @.str)
  %8 = load ptr, ptr %2, align 8, !tbaa !3
  call void @_ZN12param_descrs6insertEPKc12cmd_arg_kindS1_S1_S1_(ptr noundef nonnull align 8 dereferenceable(8) %8, ptr noundef @.str.16, i32 noundef 0, ptr noundef @.str.17, ptr noundef @.str.18, ptr noundef @.str)
  ret void
}

; Function Attrs: mustprogress uwtable
define hidden void @_ZN17algebraic_numbers7manager16get_param_descrsER12param_descrs(ptr noundef nonnull align 8 dereferenceable(8) %0) #4 align 2 {
  %2 = alloca ptr, align 8
  store ptr %0, ptr %2, align 8, !tbaa !3
  %3 = load ptr, ptr %2, align 8, !tbaa !3
  call void @_ZN16algebraic_params20collect_param_descrsER12param_descrs(ptr noundef nonnull align 8 dereferenceable(8) %3)
  ret void
}